; Function Attrs: nounwind uwtable
define internal noundef i32 @get_memory_row(ptr noundef %0, ptr nocapture noundef %1) #0 {
  %3 = getelementptr inbounds i8, ptr %0, i64 52
  %4 = load i32, ptr %3, align 4
  %5 = getelementptr inbounds i8, ptr %1, i64 88
  %6 = load i32, ptr %5, align 8
  %7 = xor i32 %6, -1
  %8 = add i32 %4, %7
  %9 = getelementptr inbounds i8, ptr %0, i64 8
  %10 = load ptr, ptr %9, align 8
  %11 = getelementptr inbounds i8, ptr %10, i64 56
  %12 = load ptr, ptr %11, align 8
  %13 = getelementptr inbounds i8, ptr %1, i64 80
  %14 = load ptr, ptr %13, align 8
  %15 = tail call ptr %12(ptr noundef %0, ptr noundef %14, i32 noundef %8, i32 noundef 1, i32 noundef 0) #3
  %16 = getelementptr inbounds i8, ptr %1, i64 32
  store ptr %15, ptr %16, align 8
  %17 = load i32, ptr %5, align 8
  %18 = add i32 %17, 1
  store i32 %18, ptr %5, align 8
  ret i32 1
}